target datalayout = "e-m:e-p270:32:32-p271:32:32-p272:64:64-i64:64-i128:128-f80:128-n8:16:32:64-S128"
target triple = "x86_64-pc-linux-gnu"

%struct.Agobj_s = type { %struct.Agtag_s, ptr }
%struct.Agtag_s = type { i32, i64 }
%struct.Agrec_s = type { ptr, ptr }
%struct.boxf = type { %struct.pointf_s, %struct.pointf_s }
%struct.pointf_s = type { double, double }
%struct.Agnodeinfo_t = type { %struct.Agrec_s, ptr, ptr, %struct.pointf_s, double, double, %struct.boxf, double, double, double, double, double, ptr, ptr, ptr, i8, i8, i8, i8, i32, i32, i32, ptr, double, i8, i8, ptr, ptr, i8, i64, i8, i8, i8, ptr, ptr, %struct.elist, %struct.elist, %struct.elist, %struct.elist, %struct.elist, ptr, i32, ptr, i32, i32, double, %struct.elist, %struct.elist, %struct.elist, %struct.elist, ptr, i32, i32, i32, [1 x double] }
%struct.elist = type { ptr, i64 }
%struct.shape_desc = type { ptr, ptr, ptr, i8 }
%struct.shape_functions = type { ptr, ptr, ptr, ptr, ptr, ptr }

@.str = private unnamed_addr constant [13 x i8] c"Agnodeinfo_t\00", align 1

; Function Attrs: nounwind uwtable
define internal void @dot_cleanup_node(ptr noundef %0) #0 {
  %2 = alloca ptr, align 8
  store ptr %0, ptr %2, align 8, !tbaa !8
  %3 = load ptr, ptr %2, align 8, !tbaa !8
  %4 = getelementptr inbounds nuw %struct.Agobj_s, ptr %3, i32 0, i32 1
  %5 = load ptr, ptr %4, align 8, !tbaa !16
  %6 = getelementptr inbounds nuw %struct.Agnodeinfo_t, ptr %5, i32 0, i32 35
  %7 = getelementptr inbounds nuw %struct.elist, ptr %6, i32 0, i32 0
  %8 = load ptr, ptr %7, align 8, !tbaa !46
  call void @free(ptr noundef %8) #12
  %9 = load ptr, ptr %2, align 8, !tbaa !8
  %10 = getelementptr inbounds nuw %struct.Agobj_s, ptr %9, i32 0, i32 1
  %11 = load ptr, ptr %10, align 8, !tbaa !16
  %12 = getelementptr inbounds nuw %struct.Agnodeinfo_t, ptr %11, i32 0, i32 36
  %13 = getelementptr inbounds nuw %struct.elist, ptr %12, i32 0, i32 0
  %14 = load ptr, ptr %13, align 8, !tbaa !48
  call void @free(ptr noundef %14) #12
  %15 = load ptr, ptr %2, align 8, !tbaa !8
  %16 = getelementptr inbounds nuw %struct.Agobj_s, ptr %15, i32 0, i32 1
  %17 = load ptr, ptr %16, align 8, !tbaa !16
  %18 = getelementptr inbounds nuw %struct.Agnodeinfo_t, ptr %17, i32 0, i32 37
  %19 = getelementptr inbounds nuw %struct.elist, ptr %18, i32 0, i32 0
  %20 = load ptr, ptr %19, align 8, !tbaa !52
  call void @free(ptr noundef %20) #12
  %21 = load ptr, ptr %2, align 8, !tbaa !8
  %22 = getelementptr inbounds nuw %struct.Agobj_s, ptr %21, i32 0, i32 1
  %23 = load ptr, ptr %22, align 8, !tbaa !16
  %24 = getelementptr inbounds nuw %struct.Agnodeinfo_t, ptr %23, i32 0, i32 38
  %25 = getelementptr inbounds nuw %struct.elist, ptr %24, i32 0, i32 0
  %26 = load ptr, ptr %25, align 8, !tbaa !50
  call void @free(ptr noundef %26) #12
  %27 = load ptr, ptr %2, align 8, !tbaa !8
  %28 = getelementptr inbounds nuw %struct.Agobj_s, ptr %27, i32 0, i32 1
  %29 = load ptr, ptr %28, align 8, !tbaa !16
  %30 = getelementptr inbounds nuw %struct.Agnodeinfo_t, ptr %29, i32 0, i32 39
  %31 = getelementptr inbounds nuw %struct.elist, ptr %30, i32 0, i32 0
  %32 = load ptr, ptr %31, align 8, !tbaa !54
  call void @free(ptr noundef %32) #12
  %33 = load ptr, ptr %2, align 8, !tbaa !8
  %34 = getelementptr inbounds nuw %struct.Agobj_s, ptr %33, i32 0, i32 1
  %35 = load ptr, ptr %34, align 8, !tbaa !16
  %36 = getelementptr inbounds nuw %struct.Agnodeinfo_t, ptr %35, i32 0, i32 12
  %37 = load ptr, ptr %36, align 8, !tbaa !84
  call void @free_label(ptr noundef %37)
  %38 = load ptr, ptr %2, align 8, !tbaa !8
  %39 = getelementptr inbounds nuw %struct.Agobj_s, ptr %38, i32 0, i32 1
  %40 = load ptr, ptr %39, align 8, !tbaa !16
  %41 = getelementptr inbounds nuw %struct.Agnodeinfo_t, ptr %40, i32 0, i32 13
  %42 = load ptr, ptr %41, align 8, !tbaa !85
  call void @free_label(ptr noundef %42)
  %43 = load ptr, ptr %2, align 8, !tbaa !8
  %44 = getelementptr inbounds nuw %struct.Agobj_s, ptr %43, i32 0, i32 1
  %45 = load ptr, ptr %44, align 8, !tbaa !16
  %46 = getelementptr inbounds nuw %struct.Agnodeinfo_t, ptr %45, i32 0, i32 1
  %47 = load ptr, ptr %46, align 8, !tbaa !86
  %48 = icmp ne ptr %47, null
  br i1 %48, label %49, label %60

49:                                               ; preds = %1
  %50 = load ptr, ptr %2, align 8, !tbaa !8
  %51 = getelementptr inbounds nuw %struct.Agobj_s, ptr %50, i32 0, i32 1
  %52 = load ptr, ptr %51, align 8, !tbaa !16
  %53 = getelementptr inbounds nuw %struct.Agnodeinfo_t, ptr %52, i32 0, i32 1
  %54 = load ptr, ptr %53, align 8, !tbaa !86
  %55 = getelementptr inbounds nuw %struct.shape_desc, ptr %54, i32 0, i32 1
  %56 = load ptr, ptr %55, align 8, !tbaa !87
  %57 = getelementptr inbounds nuw %struct.shape_functions, ptr %56, i32 0, i32 1
  %58 = load ptr, ptr %57, align 8, !tbaa !91
  %59 = load ptr, ptr %2, align 8, !tbaa !8
  call void %58(ptr noundef %59)
  br label %60

60:                                               ; preds = %49, %1
  %61 = load ptr, ptr %2, align 8, !tbaa !8
  %62 = call i32 @agdelrec(ptr noundef %61, ptr noundef @.str)
  ret void
}