; Function Attrs: nounwind uwtable
define internal fastcc void @dot_cleanup_node(ptr noundef nonnull %0) unnamed_addr #0 {
  %2 = getelementptr inbounds nuw i8, ptr %0, i64 16
  %3 = load ptr, ptr %2, align 8, !tbaa !3
  %4 = getelementptr inbounds nuw i8, ptr %3, i64 256
  %5 = load ptr, ptr %4, align 8, !tbaa !41
  tail call void @free(ptr noundef %5) #15
  %6 = load ptr, ptr %2, align 8, !tbaa !3
  %7 = getelementptr inbounds nuw i8, ptr %6, i64 272
  %8 = load ptr, ptr %7, align 8, !tbaa !43
  tail call void @free(ptr noundef %8) #15
  %9 = load ptr, ptr %2, align 8, !tbaa !3
  %10 = getelementptr inbounds nuw i8, ptr %9, i64 288
  %11 = load ptr, ptr %10, align 8, !tbaa !47
  tail call void @free(ptr noundef %11) #15
  %12 = load ptr, ptr %2, align 8, !tbaa !3
  %13 = getelementptr inbounds nuw i8, ptr %12, i64 304
  %14 = load ptr, ptr %13, align 8, !tbaa !45
  tail call void @free(ptr noundef %14) #15
  %15 = load ptr, ptr %2, align 8, !tbaa !3
  %16 = getelementptr inbounds nuw i8, ptr %15, i64 320
  %17 = load ptr, ptr %16, align 8, !tbaa !49
  tail call void @free(ptr noundef %17) #15
  %18 = load ptr, ptr %2, align 8, !tbaa !3
  %19 = getelementptr inbounds nuw i8, ptr %18, i64 136
  %20 = load ptr, ptr %19, align 8, !tbaa !85
  tail call void @free_label(ptr noundef %20) #15
  %21 = load ptr, ptr %2, align 8, !tbaa !3
  %22 = getelementptr inbounds nuw i8, ptr %21, i64 144
  %23 = load ptr, ptr %22, align 8, !tbaa !86
  tail call void @free_label(ptr noundef %23) #15
  %24 = load ptr, ptr %2, align 8, !tbaa !3
  %25 = getelementptr inbounds nuw i8, ptr %24, i64 16
  %26 = load ptr, ptr %25, align 8, !tbaa !87
  %.not = icmp eq ptr %26, null
  br i1 %.not, label %32, label %27

27:                                               ; preds = %1
  %28 = getelementptr inbounds nuw i8, ptr %26, i64 8
  %29 = load ptr, ptr %28, align 8, !tbaa !88
  %30 = getelementptr inbounds nuw i8, ptr %29, i64 8
  %31 = load ptr, ptr %30, align 8, !tbaa !92
  tail call void %31(ptr noundef nonnull %0) #15
  br label %32

32:                                               ; preds = %27, %1
  %33 = tail call i32 @agdelrec(ptr noundef nonnull %0, ptr noundef nonnull @.str) #15
  ret void
}